; Function Attrs: nounwind sspstrong uwtable
define dso_local i64 @dbus_display_console_get_type() local_unnamed_addr #0 {
entry:
  %0 = load atomic i64, ptr @dbus_display_console_get_type.static_g_define_type_id seq_cst, align 8
  %tobool.not = icmp eq i64 %0, 0
  br i1 %tobool.not, label %land.rhs, label %if.end

land.rhs:                                         ; preds = %entry
  %call = tail call i32 @g_once_init_enter(ptr noundef nonnull @dbus_display_console_get_type.static_g_define_type_id) #9
  %tobool2.not = icmp eq i32 %call, 0
  br i1 %tobool2.not, label %if.end, label %if.then

if.then:                                          ; preds = %land.rhs
  %call.i = tail call i64 @g_dbus_object_skeleton_get_type() #10
  %call1.i = tail call ptr @g_intern_static_string(ptr noundef nonnull @.str.25) #9
  %call2.i = tail call i64 @g_type_register_static_simple(i64 noundef %call.i, ptr noundef %call1.i, i32 noundef 208, ptr noundef nonnull @dbus_display_console_class_intern_init, i32 noundef 176, ptr noundef nonnull @dbus_display_console_init, i32 noundef 0) #9
  tail call void @g_once_init_leave(ptr noundef nonnull @dbus_display_console_get_type.static_g_define_type_id, i64 noundef %call2.i) #9
  br label %if.end

if.end:                                           ; preds = %entry, %if.then, %land.rhs
  %1 = load i64, ptr @dbus_display_console_get_type.static_g_define_type_id, align 8
  ret i64 %1
}